; Function Attrs: nounwind uwtable
define void @jitter3d(ptr noundef readonly captures(none) %0, i32 noundef %1) local_unnamed_addr #4 {
  %3 = load i16, ptr @Ndim, align 2, !tbaa !71
  %4 = icmp ugt i16 %3, 2
  br i1 %4, label %.lr.ph.i, label %jitter_d.exit

.lr.ph.i:                                         ; preds = %2
  %5 = sitofp i32 %1 to double
  %6 = getelementptr inbounds nuw i8, ptr %0, i64 16
  br label %7

7:                                                ; preds = %7, %.lr.ph.i
  %indvars.iv.i = phi i64 [ 2, %.lr.ph.i ], [ %indvars.iv.next.i, %7 ]
  %8 = tail call double @drand48() #21
  %9 = fmul double %8, %5
  %10 = load ptr, ptr %6, align 8, !tbaa !40
  %11 = getelementptr inbounds nuw i8, ptr %10, i64 176
  %12 = load ptr, ptr %11, align 8, !tbaa !86
  %13 = getelementptr inbounds nuw double, ptr %12, i64 %indvars.iv.i
  store double %9, ptr %13, align 8, !tbaa !10
  %indvars.iv.next.i = add nuw nsw i64 %indvars.iv.i, 1
  %14 = load i16, ptr @Ndim, align 2, !tbaa !71
  %15 = zext i16 %14 to i64
  %16 = icmp samesign ult i64 %indvars.iv.next.i, %15
  br i1 %16, label %7, label %jitter_d.exit, !llvm.loop !87

jitter_d.exit:                                    ; preds = %7, %2
  ret void
}